target datalayout = "e-m:e-p270:32:32-p271:32:32-p272:64:64-i64:64-i128:128-f80:128-n8:16:32:64-S128"
target triple = "x86_64-pc-linux-gnu"

%struct.strvec = type { ptr, i64, i64 }
%struct.credential_capability = type { i8, [3 x i8] }
%struct.credential = type { %struct.string_list, %struct.strvec, %struct.strvec, %struct.strvec, i16, [2 x i8], %struct.credential_capability, %struct.credential_capability, ptr, ptr, ptr, ptr, ptr, ptr, ptr, i64, ptr }
%struct.string_list = type { ptr, i64, i64, i8, ptr }

@http_proxy_ssl_cert = internal global ptr null, align 8
@proxy_ssl_cert_password_required = internal global i32 0, align 4
@the_repository = external global ptr, align 8
@.str.124 = private unnamed_addr constant [1 x i8] zeroinitializer, align 1
@.str.165 = private unnamed_addr constant [5 x i8] c"cert\00", align 1

; Function Attrs: nounwind uwtable
define internal i32 @has_proxy_cert_password() #0 {
  %1 = alloca i32, align 4
  %2 = load ptr, ptr @http_proxy_ssl_cert, align 8, !tbaa !4
  %3 = icmp eq ptr %2, null
  br i1 %3, label %7, label %4

4:                                                ; preds = %0
  %5 = load i32, ptr @proxy_ssl_cert_password_required, align 4, !tbaa !19
  %6 = icmp ne i32 %5, 1
  br i1 %6, label %7, label %8

7:                                                ; preds = %4, %0
  store i32 0, ptr %1, align 4
  br label %19

8:                                                ; preds = %4
  %9 = load ptr, ptr getelementptr inbounds nuw (%struct.credential, ptr @proxy_cert_auth, i32 0, i32 9), align 8, !tbaa !80
  %10 = icmp ne ptr %9, null
  br i1 %10, label %18, label %11

11:                                               ; preds = %8
  %12 = call ptr @xstrdup(ptr noundef @.str.165)
  store ptr %12, ptr getelementptr inbounds nuw (%struct.credential, ptr @proxy_cert_auth, i32 0, i32 11), align 8, !tbaa !81
  %13 = call ptr @xstrdup(ptr noundef @.str.124)
  store ptr %13, ptr getelementptr inbounds nuw (%struct.credential, ptr @proxy_cert_auth, i32 0, i32 12), align 8, !tbaa !82
  %14 = call ptr @xstrdup(ptr noundef @.str.124)
  store ptr %14, ptr getelementptr inbounds nuw (%struct.credential, ptr @proxy_cert_auth, i32 0, i32 8), align 8, !tbaa !114
  %15 = load ptr, ptr @http_proxy_ssl_cert, align 8, !tbaa !4
  %16 = call ptr @xstrdup(ptr noundef %15)
  store ptr %16, ptr getelementptr inbounds nuw (%struct.credential, ptr @proxy_cert_auth, i32 0, i32 13), align 8, !tbaa !83
  %17 = load ptr, ptr @the_repository, align 8, !tbaa !66
  call void @credential_fill(ptr noundef %17, ptr noundef @proxy_cert_auth, i32 noundef 0)
  br label %18

18:                                               ; preds = %11, %8
  store i32 1, ptr %1, align 4
  br label %19

19:                                               ; preds = %18, %7
  %20 = load i32, ptr %1, align 4
  ret i32 %20
}