; Function Attrs: nounwind uwtable
define internal fastcc range(i32 0, 2) i32 @has_proxy_cert_password() unnamed_addr #3 {
  %1 = load ptr, ptr @http_proxy_ssl_cert, align 8, !tbaa !41
  %2 = icmp eq ptr %1, null
  %3 = load i32, ptr @proxy_ssl_cert_password_required, align 4
  %4 = icmp ne i32 %3, 1
  %or.cond = select i1 %2, i1 true, i1 %4
  br i1 %or.cond, label %14, label %5

5:                                                ; preds = %0
  %6 = load ptr, ptr getelementptr inbounds nuw (i8, ptr @proxy_cert_auth, i64 136), align 8, !tbaa !70
  %.not = icmp eq ptr %6, null
  br i1 %.not, label %7, label %14

7:                                                ; preds = %5
  %8 = tail call ptr @xstrdup(ptr noundef nonnull @.str.165) #22
  store ptr %8, ptr getelementptr inbounds nuw (i8, ptr @proxy_cert_auth, i64 152), align 8, !tbaa !71
  %9 = tail call ptr @xstrdup(ptr noundef nonnull @.str.124) #22
  store ptr %9, ptr getelementptr inbounds nuw (i8, ptr @proxy_cert_auth, i64 160), align 8, !tbaa !72
  %10 = tail call ptr @xstrdup(ptr noundef nonnull @.str.124) #22
  store ptr %10, ptr getelementptr inbounds nuw (i8, ptr @proxy_cert_auth, i64 128), align 8, !tbaa !73
  %11 = load ptr, ptr @http_proxy_ssl_cert, align 8, !tbaa !41
  %12 = tail call ptr @xstrdup(ptr noundef %11) #22
  store ptr %12, ptr getelementptr inbounds nuw (i8, ptr @proxy_cert_auth, i64 168), align 8, !tbaa !74
  %13 = load ptr, ptr @the_repository, align 8, !tbaa !39
  tail call void @credential_fill(ptr noundef %13, ptr noundef nonnull @proxy_cert_auth, i32 noundef 0) #22
  br label %14

14:                                               ; preds = %5, %7, %0
  %.0 = phi i32 [ 0, %0 ], [ 1, %7 ], [ 1, %5 ]
  ret i32 %.0
}